; ModuleID = '11/1084.c'
source_filename = "11/1084.c"
target datalayout = "e-m:e-p270:32:32-p271:32:32-p272:64:64-i64:64-f80:128-n8:16:32:64-S128"
target triple = "x86_64-pc-linux-gnu"

@.str = private unnamed_addr constant [9 x i8] c"%d %d %d\00", align 1
@__const.main.month = private unnamed_addr constant [12 x i32] [i32 0, i32 31, i32 28, i32 31, i32 30, i32 31, i32 30, i32 31, i32 31, i32 30, i32 31, i32 30], align 16
@.str.1 = private unnamed_addr constant [4 x i8] c"%d\0A\00", align 1

; Function Attrs: noinline nounwind uwtable
define dso_local i32 @main() #0 {
  %1 = alloca i32, align 4
  %2 = alloca i32, align 4
  %3 = alloca i32, align 4
  %4 = alloca i32, align 4
  %5 = alloca [12 x i32], align 16
  %6 = alloca i32, align 4
  %7 = alloca i32, align 4
  store i32 0, i32* %1, align 4
  %8 = call i32 (i8*, ...) @__isoc99_scanf(i8* getelementptr inbounds ([9 x i8], [9 x i8]* @.str, i64 0, i64 0), i32* %2, i32* %3, i32* %4)
  %9 = bitcast [12 x i32]* %5 to i8*
  call void @llvm.memcpy.p0i8.p0i8.i64(i8* align 16 %9, i8* align 16 bitcast ([12 x i32]* @__const.main.month to i8*), i64 48, i1 false)
  %10 = load i32, i32* %2, align 4
  %11 = srem i32 %10, 400
  %12 = icmp eq i32 %11, 0
  br i1 %12, label %21, label %13

13:                                               ; preds = %0
  %14 = load i32, i32* %2, align 4
  %15 = srem i32 %14, 100
  %16 = icmp ne i32 %15, 0
  br i1 %16, label %17, label %23

17:                                               ; preds = %13
  %18 = load i32, i32* %2, align 4
  %19 = srem i32 %18, 4
  %20 = icmp eq i32 %19, 0
  br i1 %20, label %21, label %23

21:                                               ; preds = %17, %0
  %22 = getelementptr inbounds [12 x i32], [12 x i32]* %5, i64 0, i64 2
  store i32 29, i32* %22, align 8
  br label %23

23:                                               ; preds = %21, %17, %13
  store i32 0, i32* %7, align 4
  store i32 1, i32* %6, align 4
  br label %24

24:                                               ; preds = %35, %23
  %25 = load i32, i32* %6, align 4
  %26 = load i32, i32* %3, align 4
  %27 = icmp slt i32 %25, %26
  br i1 %27, label %28, label %38

28:                                               ; preds = %24
  %29 = load i32, i32* %6, align 4
  %30 = sext i32 %29 to i64
  %31 = getelementptr inbounds [12 x i32], [12 x i32]* %5, i64 0, i64 %30
  %32 = load i32, i32* %31, align 4
  %33 = load i32, i32* %7, align 4
  %34 = add nsw i32 %33, %32
  store i32 %34, i32* %7, align 4
  br label %35

35:                                               ; preds = %28
  %36 = load i32, i32* %6, align 4
  %37 = add nsw i32 %36, 1
  store i32 %37, i32* %6, align 4
  br label %24

38:                                               ; preds = %24
  %39 = load i32, i32* %4, align 4
  %40 = load i32, i32* %7, align 4
  %41 = add nsw i32 %40, %39
  store i32 %41, i32* %7, align 4
  %42 = load i32, i32* %7, align 4
  %43 = call i32 (i8*, ...) @printf(i8* getelementptr inbounds ([4 x i8], [4 x i8]* @.str.1, i64 0, i64 0), i32 %42)
  ret i32 0
}

declare dso_local i32 @__isoc99_scanf(i8*, ...) #1

; Function Attrs: argmemonly nounwind willreturn
declare void @llvm.memcpy.p0i8.p0i8.i64(i8* noalias nocapture writeonly, i8* noalias nocapture readonly, i64, i1 immarg) #2

declare dso_local i32 @printf(i8*, ...) #1


!llvm.module.flags = !{!0}
!llvm.ident = !{!1}

!0 = !{i32 1, !"wchar_size", i32 4}
!1 = !{!"clang version 10.0.0-4ubuntu1 "}
